target datalayout = "e-m:e-p270:32:32-p271:32:32-p272:64:64-i64:64-i128:128-f80:128-n8:16:32:64-S128"
target triple = "x86_64-pc-linux-gnu"

%struct.cbs_st = type { ptr, i64 }
%struct.ssl_st = type { i32, i16, i16, ptr, ptr, ptr, ptr, ptr, i32, i32, ptr, ptr, i32, i32, ptr, ptr, ptr, ptr, ptr, ptr, ptr, ptr, i32, i32, [32 x i8], ptr, ptr, ptr, ptr, ptr, ptr, ptr, i64, %struct.crypto_ex_data_st, ptr, i32, i32, i32, i32, i16, ptr, i32, i64, ptr, ptr, ptr, ptr, ptr, ptr, i32, i32, ptr, ptr, i8, i8, i32 }
%struct.crypto_ex_data_st = type { ptr }
%struct.cert_st = type { ptr, ptr, ptr, ptr, i32, i32, ptr, ptr, ptr, i64, ptr, i64, ptr, ptr, ptr }
%struct.tls_sigalgs_st = type { i8, i8 }

; Function Attrs: nounwind uwtable
define hidden i32 @tls1_parse_peer_sigalgs(ptr noundef %0, ptr noundef %1) #0 {
  %3 = alloca i32, align 4
  %4 = alloca ptr, align 8
  %5 = alloca ptr, align 8
  %6 = alloca ptr, align 8
  %7 = alloca i64, align 8
  %8 = alloca i32, align 4
  %9 = alloca %struct.cbs_st, align 8
  %10 = alloca i64, align 8
  %11 = alloca ptr, align 8
  store ptr %0, ptr %4, align 8, !tbaa !69
  store ptr %1, ptr %5, align 8, !tbaa !52
  %12 = load ptr, ptr %4, align 8, !tbaa !69
  %13 = call zeroext i16 @ssl3_protocol_version(ptr noundef %12)
  %14 = zext i16 %13 to i32
  %15 = icmp slt i32 %14, 771
  br i1 %15, label %16, label %17

16:                                               ; preds = %2
  store i32 1, ptr %3, align 4
  br label %89

17:                                               ; preds = %2
  call void @llvm.lifetime.start.p0(i64 8, ptr %6) #8
  %18 = load ptr, ptr %4, align 8, !tbaa !69
  %19 = getelementptr inbounds nuw %struct.ssl_st, ptr %18, i32 0, i32 21
  %20 = load ptr, ptr %19, align 8, !tbaa !113
  store ptr %20, ptr %6, align 8, !tbaa !114
  %21 = load ptr, ptr %6, align 8, !tbaa !114
  %22 = getelementptr inbounds nuw %struct.cert_st, ptr %21, i32 0, i32 8
  %23 = load ptr, ptr %22, align 8, !tbaa !167
  call void @free(ptr noundef %23) #8
  %24 = load ptr, ptr %6, align 8, !tbaa !114
  %25 = getelementptr inbounds nuw %struct.cert_st, ptr %24, i32 0, i32 8
  store ptr null, ptr %25, align 8, !tbaa !167
  %26 = load ptr, ptr %6, align 8, !tbaa !114
  %27 = getelementptr inbounds nuw %struct.cert_st, ptr %26, i32 0, i32 9
  store i64 0, ptr %27, align 8, !tbaa !168
  call void @llvm.lifetime.start.p0(i64 8, ptr %7) #8
  %28 = load ptr, ptr %5, align 8, !tbaa !52
  %29 = call i64 @CBS_len(ptr noundef %28)
  store i64 %29, ptr %7, align 8, !tbaa !56
  %30 = load i64, ptr %7, align 8, !tbaa !56
  %31 = urem i64 %30, 2
  %32 = icmp ne i64 %31, 0
  br i1 %32, label %33, label %34

33:                                               ; preds = %17
  store i32 0, ptr %3, align 4
  store i32 1, ptr %8, align 4
  br label %88

34:                                               ; preds = %17
  %35 = load i64, ptr %7, align 8, !tbaa !56
  %36 = udiv i64 %35, 2
  store i64 %36, ptr %7, align 8, !tbaa !56
  %37 = load i64, ptr %7, align 8, !tbaa !56
  %38 = icmp eq i64 %37, 0
  br i1 %38, label %39, label %40

39:                                               ; preds = %34
  store i32 1, ptr %3, align 4
  store i32 1, ptr %8, align 4
  br label %88

40:                                               ; preds = %34
  %41 = load i64, ptr %7, align 8, !tbaa !56
  %42 = mul i64 %41, 2
  %43 = call noalias ptr @malloc(i64 noundef %42) #9
  %44 = load ptr, ptr %6, align 8, !tbaa !114
  %45 = getelementptr inbounds nuw %struct.cert_st, ptr %44, i32 0, i32 8
  store ptr %43, ptr %45, align 8, !tbaa !167
  %46 = load ptr, ptr %6, align 8, !tbaa !114
  %47 = getelementptr inbounds nuw %struct.cert_st, ptr %46, i32 0, i32 8
  %48 = load ptr, ptr %47, align 8, !tbaa !167
  %49 = icmp eq ptr %48, null
  br i1 %49, label %50, label %51

50:                                               ; preds = %40
  store i32 0, ptr %3, align 4
  store i32 1, ptr %8, align 4
  br label %88

51:                                               ; preds = %40
  %52 = load i64, ptr %7, align 8, !tbaa !56
  %53 = load ptr, ptr %6, align 8, !tbaa !114
  %54 = getelementptr inbounds nuw %struct.cert_st, ptr %53, i32 0, i32 9
  store i64 %52, ptr %54, align 8, !tbaa !168
  call void @llvm.lifetime.start.p0(i64 16, ptr %9) #8
  %55 = load ptr, ptr %5, align 8, !tbaa !52
  %56 = call ptr @CBS_data(ptr noundef %55)
  %57 = load ptr, ptr %5, align 8, !tbaa !52
  %58 = call i64 @CBS_len(ptr noundef %57)
  call void @CBS_init(ptr noundef %9, ptr noundef %56, i64 noundef %58)
  call void @llvm.lifetime.start.p0(i64 8, ptr %10) #8
  store i64 0, ptr %10, align 8, !tbaa !56
  br label %59

59:                                               ; preds = %83, %51
  %60 = load i64, ptr %10, align 8, !tbaa !56
  %61 = load i64, ptr %7, align 8, !tbaa !56
  %62 = icmp ult i64 %60, %61
  br i1 %62, label %63, label %86

63:                                               ; preds = %59
  call void @llvm.lifetime.start.p0(i64 8, ptr %11) #8
  %64 = load ptr, ptr %6, align 8, !tbaa !114
  %65 = getelementptr inbounds nuw %struct.cert_st, ptr %64, i32 0, i32 8
  %66 = load ptr, ptr %65, align 8, !tbaa !167
  %67 = load i64, ptr %10, align 8, !tbaa !56
  %68 = getelementptr inbounds nuw %struct.tls_sigalgs_st, ptr %66, i64 %67
  store ptr %68, ptr %11, align 8, !tbaa !169
  %69 = load ptr, ptr %11, align 8, !tbaa !169
  %70 = getelementptr inbounds nuw %struct.tls_sigalgs_st, ptr %69, i32 0, i32 1
  %71 = call i32 @CBS_get_u8(ptr noundef %9, ptr noundef %70)
  %72 = icmp ne i32 %71, 0
  br i1 %72, label %73, label %78

73:                                               ; preds = %63
  %74 = load ptr, ptr %11, align 8, !tbaa !169
  %75 = getelementptr inbounds nuw %struct.tls_sigalgs_st, ptr %74, i32 0, i32 0
  %76 = call i32 @CBS_get_u8(ptr noundef %9, ptr noundef %75)
  %77 = icmp ne i32 %76, 0
  br i1 %77, label %79, label %78

78:                                               ; preds = %73, %63
  store i32 0, ptr %3, align 4
  store i32 1, ptr %8, align 4
  br label %80

79:                                               ; preds = %73
  store i32 0, ptr %8, align 4
  br label %80

80:                                               ; preds = %79, %78
  call void @llvm.lifetime.end.p0(i64 8, ptr %11) #8
  %81 = load i32, ptr %8, align 4
  switch i32 %81, label %87 [
    i32 0, label %82
  ]

82:                                               ; preds = %80
  br label %83

83:                                               ; preds = %82
  %84 = load i64, ptr %10, align 8, !tbaa !56
  %85 = add i64 %84, 1
  store i64 %85, ptr %10, align 8, !tbaa !56
  br label %59, !llvm.loop !170

86:                                               ; preds = %59
  store i32 1, ptr %3, align 4
  store i32 1, ptr %8, align 4
  br label %87

87:                                               ; preds = %86, %80
  call void @llvm.lifetime.end.p0(i64 8, ptr %10) #8
  call void @llvm.lifetime.end.p0(i64 16, ptr %9) #8
  br label %88

88:                                               ; preds = %87, %50, %39, %33
  call void @llvm.lifetime.end.p0(i64 8, ptr %7) #8
  call void @llvm.lifetime.end.p0(i64 8, ptr %6) #8
  br label %89

89:                                               ; preds = %88, %16
  %90 = load i32, ptr %3, align 4
  ret i32 %90
}