; Function Attrs: nounwind uwtable
define hidden range(i32 0, 2) i32 @tls1_parse_peer_sigalgs(ptr noundef %0, ptr noundef %1) local_unnamed_addr #0 {
  %3 = alloca %struct.cbs_st, align 8
  %4 = tail call zeroext i16 @ssl3_protocol_version(ptr noundef %0) #21
  %5 = icmp ult i16 %4, 771
  br i1 %5, label %32, label %6

6:                                                ; preds = %2
  %7 = getelementptr inbounds nuw i8, ptr %0, i64 136
  %8 = load ptr, ptr %7, align 8, !tbaa !93
  %9 = getelementptr inbounds nuw i8, ptr %8, i64 56
  %10 = load ptr, ptr %9, align 8, !tbaa !136
  tail call void @free(ptr noundef %10) #21
  %11 = getelementptr inbounds nuw i8, ptr %8, i64 64
  tail call void @llvm.memset.p0.i64(ptr noundef nonnull align 8 dereferenceable(16) %9, i8 0, i64 16, i1 false)
  %12 = tail call i64 @CBS_len(ptr noundef %1) #21
  %13 = and i64 %12, 1
  %.not = icmp eq i64 %13, 0
  br i1 %.not, label %14, label %32

14:                                               ; preds = %6
  %15 = lshr exact i64 %12, 1
  %16 = icmp eq i64 %12, 0
  br i1 %16, label %32, label %17

17:                                               ; preds = %14
  %18 = tail call noalias ptr @malloc(i64 noundef %12) #22
  store ptr %18, ptr %9, align 8, !tbaa !136
  %19 = icmp eq ptr %18, null
  br i1 %19, label %32, label %20

20:                                               ; preds = %17
  store i64 %15, ptr %11, align 8, !tbaa !137
  call void @llvm.lifetime.start.p0(i64 16, ptr nonnull %3) #21
  %21 = tail call ptr @CBS_data(ptr noundef %1) #21
  %22 = tail call i64 @CBS_len(ptr noundef %1) #21
  call void @CBS_init(ptr noundef nonnull %3, ptr noundef %21, i64 noundef %22) #21
  br label %25

23:                                               ; preds = %.critedge
  %24 = add nuw nsw i64 %.02429, 1
  %exitcond.not = icmp eq i64 %24, %15
  br i1 %exitcond.not, label %31, label %25, !llvm.loop !138

25:                                               ; preds = %20, %23
  %.02429 = phi i64 [ 0, %20 ], [ %24, %23 ]
  %26 = load ptr, ptr %9, align 8, !tbaa !136
  %27 = getelementptr inbounds nuw %struct.tls_sigalgs_st, ptr %26, i64 %.02429
  %28 = getelementptr inbounds nuw i8, ptr %27, i64 1
  %29 = call i32 @CBS_get_u8(ptr noundef nonnull %3, ptr noundef nonnull %28) #21
  %.not27 = icmp eq i32 %29, 0
  br i1 %.not27, label %31, label %.critedge

.critedge:                                        ; preds = %25
  %30 = call i32 @CBS_get_u8(ptr noundef nonnull %3, ptr noundef nonnull %27) #21
  %.not28 = icmp eq i32 %30, 0
  br i1 %.not28, label %31, label %23

31:                                               ; preds = %23, %.critedge, %25
  %.4 = phi i32 [ 0, %25 ], [ 0, %.critedge ], [ 1, %23 ]
  call void @llvm.lifetime.end.p0(i64 16, ptr nonnull %3) #21
  br label %32

32:                                               ; preds = %31, %6, %14, %17, %2
  %.0 = phi i32 [ 1, %2 ], [ %.4, %31 ], [ 0, %6 ], [ 1, %14 ], [ 0, %17 ]
  ret i32 %.0
}